; Function Attrs: mustprogress uwtable
define void @_ZN4base18ThreadLocalStorage10StaticSlot10InitializeEPFvPvE(ptr noundef nonnull align 4 dereferenceable(8) initializes((4, 8)) %0, ptr noundef %1) local_unnamed_addr #0 align 2 personality ptr @__gxx_personality_v0 {
  %3 = alloca i32, align 4
  %4 = alloca i32, align 4
  %5 = alloca %"class.logging::LogMessage", align 8
  %6 = load atomic volatile i32, ptr @_ZN12_GLOBAL__N_116g_native_tls_keyE monotonic, align 4
  %7 = icmp eq i32 %6, 2147483647
  br i1 %7, label %10, label %8

8:                                                ; preds = %2
  %9 = tail call noundef ptr @_ZN4base8internal26PlatformThreadLocalStorage11GetTLSValueEj(i32 noundef %6)
  %.not = icmp eq ptr %9, null
  br i1 %.not, label %10, label %12

10:                                               ; preds = %8, %2
  %11 = tail call fastcc noundef ptr @_ZN12_GLOBAL__N_118ConstructTlsVectorEv()
  br label %12

12:                                               ; preds = %8, %10
  %13 = atomicrmw volatile add ptr @_ZN12_GLOBAL__N_119g_last_used_tls_keyE, i32 1 monotonic, align 4
  %14 = add nsw i32 %13, 1
  %15 = getelementptr inbounds nuw i8, ptr %0, i64 4
  store i32 %14, ptr %15, align 4, !tbaa !9
  call void @llvm.lifetime.start.p0(i64 4, ptr nonnull %3)
  call void @llvm.lifetime.start.p0(i64 4, ptr nonnull %4)
  store i32 %14, ptr %3, align 4, !tbaa !12
  store i32 256, ptr %4, align 4, !tbaa !12
  %16 = icmp slt i32 %13, 255
  br i1 %16, label %_ZN7logging11CheckLTImplB5cxx11EiiPKc.exit.thread, label %_ZN7logging11CheckLTImplB5cxx11EiiPKc.exit

_ZN7logging11CheckLTImplB5cxx11EiiPKc.exit.thread: ; preds = %12
  call void @llvm.lifetime.end.p0(i64 4, ptr nonnull %3)
  call void @llvm.lifetime.end.p0(i64 4, ptr nonnull %4)
  br label %19

_ZN7logging11CheckLTImplB5cxx11EiiPKc.exit:       ; preds = %12
  %17 = call noundef ptr @_ZN7logging17MakeCheckOpStringIiiEEPNSt7__cxx1112basic_stringIcSt11char_traitsIcESaIcEEERKT_RKT0_PKc(ptr noundef nonnull align 4 dereferenceable(4) %3, ptr noundef nonnull align 4 dereferenceable(4) %4, ptr noundef nonnull @.str.1)
  call void @llvm.lifetime.end.p0(i64 4, ptr nonnull %3)
  call void @llvm.lifetime.end.p0(i64 4, ptr nonnull %4)
  %.not.i3 = icmp eq ptr %17, null
  br i1 %.not.i3, label %19, label %18

18:                                               ; preds = %_ZN7logging11CheckLTImplB5cxx11EiiPKc.exit
  call void @llvm.lifetime.start.p0(i64 408, ptr nonnull %5) #9
  call void @_ZN7logging10LogMessageC1EPKciPNSt7__cxx1112basic_stringIcSt11char_traitsIcESaIcEEE(ptr noundef nonnull align 8 dereferenceable(404) %5, ptr noundef nonnull @.str, i32 noundef 207, ptr noundef nonnull %17)
  call void @_ZN7logging10LogMessageD1Ev(ptr noundef nonnull align 8 dereferenceable(404) %5) #9
  call void @llvm.lifetime.end.p0(i64 408, ptr nonnull %5) #9
  br label %19

19:                                               ; preds = %_ZN7logging11CheckLTImplB5cxx11EiiPKc.exit.thread, %_ZN7logging11CheckLTImplB5cxx11EiiPKc.exit, %18
  %20 = load i32, ptr %15, align 4, !tbaa !9
  %21 = sext i32 %20 to i64
  %22 = getelementptr inbounds [256 x ptr], ptr @_ZN12_GLOBAL__N_117g_tls_destructorsE, i64 0, i64 %21
  store volatile ptr %1, ptr %22, align 8, !tbaa !3
  store atomic volatile i32 1, ptr %0 release, align 4
  ret void
}